target datalayout = "e-m:e-p270:32:32-p271:32:32-p272:64:64-i64:64-i128:128-f80:128-n8:16:32:64-S128"
target triple = "x86_64-pc-linux-gnu"

%struct.IDAMemRec = type { double, ptr, ptr, i32, double, double, ptr, i32, ptr, ptr, i32, ptr, ptr, i32, i32, double, double, ptr, i32, i32, i32, ptr, ptr, i32, ptr, ptr, ptr, i32, double, i32, i32, double, ptr, ptr, i32, ptr, ptr, i32, i32, i32, double, ptr, ptr, [6 x ptr], [6 x double], [6 x double], [6 x double], [6 x double], [6 x double], ptr, ptr, ptr, ptr, ptr, ptr, ptr, ptr, ptr, ptr, ptr, ptr, ptr, ptr, ptr, [6 x ptr], ptr, ptr, ptr, ptr, [6 x ptr], ptr, ptr, ptr, ptr, ptr, ptr, ptr, ptr, ptr, ptr, ptr, ptr, ptr, ptr, [6 x ptr], ptr, ptr, ptr, ptr, ptr, double, ptr, ptr, i32, i32, i32, i32, i32, i32, i32, double, double, double, i32, double, i32, i32, i32, i32, double, double, double, double, double, double, double, double, double, double, double, double, double, double, i32, i32, i32, i32, i32, i64, double, i32, i64, i64, i64, i64, i64, i64, i64, i64, i64, i64, i64, i64, i64, i64, i64, i64, i64, i64, i64, i64, i64, i64, i64, i64, ptr, ptr, ptr, i32, i32, i32, i32, i32, i32, i32, i32, i32, i32, i32, i32, i32, ptr, ptr, ptr, ptr, ptr, ptr, i32, i32, i32, i32, i32, i32, double, double, double, ptr, i32, ptr, ptr, double, double, double, ptr, ptr, ptr, double, double, i32, i32, i64, ptr, i32, i32, ptr, i32 }

@.str = private unnamed_addr constant [5 x i8] c"IDAS\00", align 1
@.str.4 = private unnamed_addr constant [24 x i8] c"ida_mem = NULL illegal.\00", align 1
@.str.30 = private unnamed_addr constant [52 x i8] c"Illegal attempt to call before calling IDASensInit.\00", align 1
@.str.40 = private unnamed_addr constant [73 x i8] c"Forward sensitivity analysis for quadrature variables was not activated.\00", align 1
@.str.42 = private unnamed_addr constant [32 x i8] c"reltolQS < 0 illegal parameter.\00", align 1
@.str.43 = private unnamed_addr constant [35 x i8] c"abstolQS = NULL illegal parameter.\00", align 1
@.str.44 = private unnamed_addr constant [46 x i8] c"abstolQS has negative component(s) (illegal).\00", align 1
@.str.45 = private unnamed_addr constant [24 x i8] c"IDAQuadSensSVtolerances\00", align 1

; Function Attrs: nounwind uwtable
define i32 @IDAQuadSensSVtolerances(ptr noundef %0, double noundef %1, ptr noundef %2) #0 {
  %4 = alloca i32, align 4
  %5 = alloca ptr, align 8
  %6 = alloca double, align 8
  %7 = alloca ptr, align 8
  %8 = alloca ptr, align 8
  %9 = alloca i32, align 4
  %10 = alloca i32, align 4
  store ptr %0, ptr %5, align 8, !tbaa !91
  store double %1, ptr %6, align 8, !tbaa !92
  store ptr %2, ptr %7, align 8, !tbaa !94
  call void @llvm.lifetime.start.p0(i64 8, ptr %8) #8
  call void @llvm.lifetime.start.p0(i64 4, ptr %9) #8
  %11 = load ptr, ptr %5, align 8, !tbaa !91
  %12 = icmp eq ptr %11, null
  br i1 %12, label %13, label %14

13:                                               ; preds = %3
  call void (ptr, i32, ptr, ptr, ptr, ...) @IDAProcessError(ptr noundef null, i32 noundef -20, ptr noundef @.str, ptr noundef @.str.45, ptr noundef @.str.4)
  store i32 -20, ptr %4, align 4
  store i32 1, ptr %10, align 4
  br label %130

14:                                               ; preds = %3
  %15 = load ptr, ptr %5, align 8, !tbaa !91
  store ptr %15, ptr %8, align 8, !tbaa !3
  %16 = load ptr, ptr %8, align 8, !tbaa !3
  %17 = getelementptr inbounds nuw %struct.IDAMemRec, ptr %16, i32 0, i32 18
  %18 = load i32, ptr %17, align 8, !tbaa !53
  %19 = icmp ne i32 %18, 0
  br i1 %19, label %22, label %20

20:                                               ; preds = %14
  %21 = load ptr, ptr %8, align 8, !tbaa !3
  call void (ptr, i32, ptr, ptr, ptr, ...) @IDAProcessError(ptr noundef %21, i32 noundef -40, ptr noundef @.str, ptr noundef @.str.45, ptr noundef @.str.30)
  store i32 -40, ptr %4, align 4
  store i32 1, ptr %10, align 4
  br label %130

22:                                               ; preds = %14
  %23 = load ptr, ptr %8, align 8, !tbaa !3
  %24 = getelementptr inbounds nuw %struct.IDAMemRec, ptr %23, i32 0, i32 170
  %25 = load i32, ptr %24, align 8, !tbaa !86
  %26 = icmp ne i32 %25, 0
  br i1 %26, label %29, label %27

27:                                               ; preds = %22
  %28 = load ptr, ptr %8, align 8, !tbaa !3
  call void (ptr, i32, ptr, ptr, ptr, ...) @IDAProcessError(ptr noundef %28, i32 noundef -50, ptr noundef @.str, ptr noundef @.str.45, ptr noundef @.str.40)
  store i32 -50, ptr %4, align 4
  store i32 1, ptr %10, align 4
  br label %130

29:                                               ; preds = %22
  %30 = load double, ptr %6, align 8, !tbaa !92
  %31 = fcmp olt double %30, 0.000000e+00
  br i1 %31, label %32, label %34

32:                                               ; preds = %29
  %33 = load ptr, ptr %8, align 8, !tbaa !3
  call void (ptr, i32, ptr, ptr, ptr, ...) @IDAProcessError(ptr noundef %33, i32 noundef -22, ptr noundef @.str, ptr noundef @.str.45, ptr noundef @.str.42)
  store i32 -22, ptr %4, align 4
  store i32 1, ptr %10, align 4
  br label %130

34:                                               ; preds = %29
  %35 = load ptr, ptr %7, align 8, !tbaa !94
  %36 = icmp eq ptr %35, null
  br i1 %36, label %37, label %39

37:                                               ; preds = %34
  %38 = load ptr, ptr %8, align 8, !tbaa !3
  call void (ptr, i32, ptr, ptr, ptr, ...) @IDAProcessError(ptr noundef %38, i32 noundef -22, ptr noundef @.str, ptr noundef @.str.45, ptr noundef @.str.43)
  store i32 -22, ptr %4, align 4
  store i32 1, ptr %10, align 4
  br label %130

39:                                               ; preds = %34
  store i32 0, ptr %9, align 4, !tbaa !88
  br label %40

40:                                               ; preds = %57, %39
  %41 = load i32, ptr %9, align 4, !tbaa !88
  %42 = load ptr, ptr %8, align 8, !tbaa !3
  %43 = getelementptr inbounds nuw %struct.IDAMemRec, ptr %42, i32 0, i32 19
  %44 = load i32, ptr %43, align 4, !tbaa !173
  %45 = icmp slt i32 %41, %44
  br i1 %45, label %46, label %60

46:                                               ; preds = %40
  %47 = load ptr, ptr %7, align 8, !tbaa !94
  %48 = load i32, ptr %9, align 4, !tbaa !88
  %49 = sext i32 %48 to i64
  %50 = getelementptr inbounds ptr, ptr %47, i64 %49
  %51 = load ptr, ptr %50, align 8, !tbaa !93
  %52 = call double @N_VMin(ptr noundef %51)
  %53 = fcmp olt double %52, 0.000000e+00
  br i1 %53, label %54, label %56

54:                                               ; preds = %46
  %55 = load ptr, ptr %8, align 8, !tbaa !3
  call void (ptr, i32, ptr, ptr, ptr, ...) @IDAProcessError(ptr noundef %55, i32 noundef -22, ptr noundef @.str, ptr noundef @.str.45, ptr noundef @.str.44)
  store i32 -22, ptr %4, align 4
  store i32 1, ptr %10, align 4
  br label %130

56:                                               ; preds = %46
  br label %57

57:                                               ; preds = %56
  %58 = load i32, ptr %9, align 4, !tbaa !88
  %59 = add nsw i32 %58, 1
  store i32 %59, ptr %9, align 4, !tbaa !88
  br label %40, !llvm.loop !219

60:                                               ; preds = %40
  %61 = load ptr, ptr %8, align 8, !tbaa !3
  %62 = getelementptr inbounds nuw %struct.IDAMemRec, ptr %61, i32 0, i32 39
  store i32 2, ptr %62, align 8, !tbaa !70
  %63 = load double, ptr %6, align 8, !tbaa !92
  %64 = load ptr, ptr %8, align 8, !tbaa !3
  %65 = getelementptr inbounds nuw %struct.IDAMemRec, ptr %64, i32 0, i32 40
  store double %63, ptr %65, align 8, !tbaa !216
  %66 = load ptr, ptr %8, align 8, !tbaa !3
  %67 = getelementptr inbounds nuw %struct.IDAMemRec, ptr %66, i32 0, i32 168
  %68 = load i32, ptr %67, align 8, !tbaa !84
  %69 = icmp ne i32 %68, 0
  br i1 %69, label %106, label %70

70:                                               ; preds = %60
  %71 = load ptr, ptr %8, align 8, !tbaa !3
  %72 = getelementptr inbounds nuw %struct.IDAMemRec, ptr %71, i32 0, i32 19
  %73 = load i32, ptr %72, align 4, !tbaa !173
  %74 = load ptr, ptr %7, align 8, !tbaa !94
  %75 = getelementptr inbounds ptr, ptr %74, i64 0
  %76 = load ptr, ptr %75, align 8, !tbaa !93
  %77 = call ptr @N_VCloneVectorArray(i32 noundef %73, ptr noundef %76)
  %78 = load ptr, ptr %8, align 8, !tbaa !3
  %79 = getelementptr inbounds nuw %struct.IDAMemRec, ptr %78, i32 0, i32 42
  store ptr %77, ptr %79, align 8, !tbaa !220
  %80 = load ptr, ptr %8, align 8, !tbaa !3
  %81 = getelementptr inbounds nuw %struct.IDAMemRec, ptr %80, i32 0, i32 19
  %82 = load i32, ptr %81, align 4, !tbaa !173
  %83 = sext i32 %82 to i64
  %84 = load ptr, ptr %8, align 8, !tbaa !3
  %85 = getelementptr inbounds nuw %struct.IDAMemRec, ptr %84, i32 0, i32 151
  %86 = load i64, ptr %85, align 8, !tbaa !158
  %87 = mul nsw i64 %83, %86
  %88 = load ptr, ptr %8, align 8, !tbaa !3
  %89 = getelementptr inbounds nuw %struct.IDAMemRec, ptr %88, i32 0, i32 153
  %90 = load i64, ptr %89, align 8, !tbaa !73
  %91 = add nsw i64 %90, %87
  store i64 %91, ptr %89, align 8, !tbaa !73
  %92 = load ptr, ptr %8, align 8, !tbaa !3
  %93 = getelementptr inbounds nuw %struct.IDAMemRec, ptr %92, i32 0, i32 19
  %94 = load i32, ptr %93, align 4, !tbaa !173
  %95 = sext i32 %94 to i64
  %96 = load ptr, ptr %8, align 8, !tbaa !3
  %97 = getelementptr inbounds nuw %struct.IDAMemRec, ptr %96, i32 0, i32 152
  %98 = load i64, ptr %97, align 8, !tbaa !159
  %99 = mul nsw i64 %95, %98
  %100 = load ptr, ptr %8, align 8, !tbaa !3
  %101 = getelementptr inbounds nuw %struct.IDAMemRec, ptr %100, i32 0, i32 154
  %102 = load i64, ptr %101, align 8, !tbaa !74
  %103 = add nsw i64 %102, %99
  store i64 %103, ptr %101, align 8, !tbaa !74
  %104 = load ptr, ptr %8, align 8, !tbaa !3
  %105 = getelementptr inbounds nuw %struct.IDAMemRec, ptr %104, i32 0, i32 168
  store i32 1, ptr %105, align 8, !tbaa !84
  br label %106

106:                                              ; preds = %70, %60
  store i32 0, ptr %9, align 4, !tbaa !88
  br label %107

107:                                              ; preds = %126, %106
  %108 = load i32, ptr %9, align 4, !tbaa !88
  %109 = load ptr, ptr %8, align 8, !tbaa !3
  %110 = getelementptr inbounds nuw %struct.IDAMemRec, ptr %109, i32 0, i32 19
  %111 = load i32, ptr %110, align 4, !tbaa !173
  %112 = icmp slt i32 %108, %111
  br i1 %112, label %113, label %129

113:                                              ; preds = %107
  %114 = load ptr, ptr %7, align 8, !tbaa !94
  %115 = load i32, ptr %9, align 4, !tbaa !88
  %116 = sext i32 %115 to i64
  %117 = getelementptr inbounds ptr, ptr %114, i64 %116
  %118 = load ptr, ptr %117, align 8, !tbaa !93
  %119 = load ptr, ptr %8, align 8, !tbaa !3
  %120 = getelementptr inbounds nuw %struct.IDAMemRec, ptr %119, i32 0, i32 42
  %121 = load ptr, ptr %120, align 8, !tbaa !220
  %122 = load i32, ptr %9, align 4, !tbaa !88
  %123 = sext i32 %122 to i64
  %124 = getelementptr inbounds ptr, ptr %121, i64 %123
  %125 = load ptr, ptr %124, align 8, !tbaa !93
  call void @N_VScale(double noundef 1.000000e+00, ptr noundef %118, ptr noundef %125)
  br label %126

126:                                              ; preds = %113
  %127 = load i32, ptr %9, align 4, !tbaa !88
  %128 = add nsw i32 %127, 1
  store i32 %128, ptr %9, align 4, !tbaa !88
  br label %107, !llvm.loop !221

129:                                              ; preds = %107
  store i32 0, ptr %4, align 4
  store i32 1, ptr %10, align 4
  br label %130

130:                                              ; preds = %129, %54, %37, %32, %27, %20, %13
  call void @llvm.lifetime.end.p0(i64 4, ptr %9) #8
  call void @llvm.lifetime.end.p0(i64 8, ptr %8) #8
  %131 = load i32, ptr %4, align 4
  ret i32 %131
}