; Function Attrs: nounwind uwtable
define range(i32 -50, 1) i32 @IDAQuadSensSVtolerances(ptr noundef captures(address_is_null) %0, double noundef %1, ptr noundef readonly captures(address_is_null) %2) local_unnamed_addr #0 {
  %4 = icmp eq ptr %0, null
  br i1 %4, label %5, label %6

5:                                                ; preds = %3
  tail call void (ptr, i32, ptr, ptr, ptr, ...) @IDAProcessError(ptr noundef null, i32 noundef -20, ptr noundef nonnull @.str, ptr noundef nonnull @.str.45, ptr noundef nonnull @.str.4)
  br label %.loopexit

6:                                                ; preds = %3
  %7 = getelementptr inbounds nuw i8, ptr %0, i64 136
  %8 = load i32, ptr %7, align 8, !tbaa !37
  %.not = icmp eq i32 %8, 0
  br i1 %.not, label %9, label %10

9:                                                ; preds = %6
  tail call void (ptr, i32, ptr, ptr, ptr, ...) @IDAProcessError(ptr noundef nonnull %0, i32 noundef -40, ptr noundef nonnull @.str, ptr noundef nonnull @.str.45, ptr noundef nonnull @.str.30)
  br label %.loopexit

10:                                               ; preds = %6
  %11 = getelementptr inbounds nuw i8, ptr %0, i64 1584
  %12 = load i32, ptr %11, align 8, !tbaa !181
  %.not41 = icmp eq i32 %12, 0
  br i1 %.not41, label %13, label %14

13:                                               ; preds = %10
  tail call void (ptr, i32, ptr, ptr, ptr, ...) @IDAProcessError(ptr noundef nonnull %0, i32 noundef -50, ptr noundef nonnull @.str, ptr noundef nonnull @.str.45, ptr noundef nonnull @.str.40)
  br label %.loopexit

14:                                               ; preds = %10
  %15 = fcmp olt double %1, 0.000000e+00
  br i1 %15, label %16, label %17

16:                                               ; preds = %14
  tail call void (ptr, i32, ptr, ptr, ptr, ...) @IDAProcessError(ptr noundef nonnull %0, i32 noundef -22, ptr noundef nonnull @.str, ptr noundef nonnull @.str.45, ptr noundef nonnull @.str.42)
  br label %.loopexit

17:                                               ; preds = %14
  %18 = icmp eq ptr %2, null
  br i1 %18, label %22, label %.preheader

.preheader:                                       ; preds = %17
  %19 = getelementptr inbounds nuw i8, ptr %0, i64 140
  %20 = load i32, ptr %19, align 4, !tbaa !139
  %21 = icmp sgt i32 %20, 0
  br i1 %21, label %.lr.ph, label %._crit_edge

22:                                               ; preds = %17
  tail call void (ptr, i32, ptr, ptr, ptr, ...) @IDAProcessError(ptr noundef nonnull %0, i32 noundef -22, ptr noundef nonnull @.str, ptr noundef nonnull @.str.45, ptr noundef nonnull @.str.43)
  br label %.loopexit

23:                                               ; preds = %.lr.ph
  %indvars.iv.next = add nuw nsw i64 %indvars.iv, 1
  %24 = load i32, ptr %19, align 4, !tbaa !139
  %25 = sext i32 %24 to i64
  %26 = icmp slt i64 %indvars.iv.next, %25
  br i1 %26, label %.lr.ph, label %._crit_edge, !llvm.loop !188

.lr.ph:                                           ; preds = %.preheader, %23
  %indvars.iv = phi i64 [ %indvars.iv.next, %23 ], [ 0, %.preheader ]
  %27 = getelementptr inbounds nuw ptr, ptr %2, i64 %indvars.iv
  %28 = load ptr, ptr %27, align 8, !tbaa !57
  %29 = tail call double @N_VMin(ptr noundef %28) #13
  %30 = fcmp olt double %29, 0.000000e+00
  br i1 %30, label %31, label %23

31:                                               ; preds = %.lr.ph
  tail call void (ptr, i32, ptr, ptr, ptr, ...) @IDAProcessError(ptr noundef nonnull %0, i32 noundef -22, ptr noundef nonnull @.str, ptr noundef nonnull @.str.45, ptr noundef nonnull @.str.44)
  br label %.loopexit

._crit_edge:                                      ; preds = %23, %.preheader
  %.lcssa = phi i32 [ %20, %.preheader ], [ %24, %23 ]
  %32 = getelementptr inbounds nuw i8, ptr %0, i64 280
  store i32 2, ptr %32, align 8, !tbaa !51
  %33 = getelementptr inbounds nuw i8, ptr %0, i64 288
  store double %1, ptr %33, align 8, !tbaa !184
  %34 = getelementptr inbounds nuw i8, ptr %0, i64 1576
  %35 = load i32, ptr %34, align 8, !tbaa !189
  %.not42 = icmp eq i32 %35, 0
  br i1 %.not42, label %36, label %54

36:                                               ; preds = %._crit_edge
  %37 = load ptr, ptr %2, align 8, !tbaa !57
  %38 = tail call ptr @N_VCloneVectorArray(i32 noundef %.lcssa, ptr noundef %37) #13
  %39 = getelementptr inbounds nuw i8, ptr %0, i64 304
  store ptr %38, ptr %39, align 8, !tbaa !190
  %40 = load i32, ptr %19, align 4, !tbaa !139
  %41 = sext i32 %40 to i64
  %42 = getelementptr inbounds nuw i8, ptr %0, i64 1480
  %43 = load i64, ptr %42, align 8, !tbaa !122
  %44 = mul nsw i64 %43, %41
  %45 = getelementptr inbounds nuw i8, ptr %0, i64 1496
  %46 = load i64, ptr %45, align 8, !tbaa !54
  %47 = add nsw i64 %46, %44
  store i64 %47, ptr %45, align 8, !tbaa !54
  %48 = getelementptr inbounds nuw i8, ptr %0, i64 1488
  %49 = load i64, ptr %48, align 8, !tbaa !123
  %50 = mul nsw i64 %49, %41
  %51 = getelementptr inbounds nuw i8, ptr %0, i64 1504
  %52 = load i64, ptr %51, align 8, !tbaa !55
  %53 = add nsw i64 %52, %50
  store i64 %53, ptr %51, align 8, !tbaa !55
  store i32 1, ptr %34, align 8, !tbaa !189
  br label %54

54:                                               ; preds = %36, %._crit_edge
  %55 = phi i32 [ %40, %36 ], [ %.lcssa, %._crit_edge ]
  %56 = icmp sgt i32 %55, 0
  br i1 %56, label %.lr.ph49, label %.loopexit

.lr.ph49:                                         ; preds = %54
  %57 = getelementptr inbounds nuw i8, ptr %0, i64 304
  br label %58

58:                                               ; preds = %.lr.ph49, %58
  %indvars.iv52 = phi i64 [ 0, %.lr.ph49 ], [ %indvars.iv.next53, %58 ]
  %59 = getelementptr inbounds nuw ptr, ptr %2, i64 %indvars.iv52
  %60 = load ptr, ptr %59, align 8, !tbaa !57
  %61 = load ptr, ptr %57, align 8, !tbaa !190
  %62 = getelementptr inbounds nuw ptr, ptr %61, i64 %indvars.iv52
  %63 = load ptr, ptr %62, align 8, !tbaa !57
  tail call void @N_VScale(double noundef 1.000000e+00, ptr noundef %60, ptr noundef %63) #13
  %indvars.iv.next53 = add nuw nsw i64 %indvars.iv52, 1
  %64 = load i32, ptr %19, align 4, !tbaa !139
  %65 = sext i32 %64 to i64
  %66 = icmp slt i64 %indvars.iv.next53, %65
  br i1 %66, label %58, label %.loopexit, !llvm.loop !191

.loopexit:                                        ; preds = %58, %54, %31, %22, %16, %13, %9, %5
  %.037 = phi i32 [ -20, %5 ], [ -22, %16 ], [ -22, %22 ], [ -22, %31 ], [ -50, %13 ], [ -40, %9 ], [ 0, %54 ], [ 0, %58 ]
  ret i32 %.037
}